; ModuleID = '62/3667.c'
source_filename = "62/3667.c"
target datalayout = "e-m:e-p270:32:32-p271:32:32-p272:64:64-i64:64-f80:128-n8:16:32:64-S128"
target triple = "x86_64-pc-linux-gnu"

@.str = private unnamed_addr constant [3 x i8] c"%s\00", align 1
@.str.1 = private unnamed_addr constant [4 x i8] c" %s\00", align 1

; Function Attrs: noinline nounwind uwtable
define dso_local i32 @main() #0 {
  %1 = alloca i32, align 4
  %2 = alloca [201 x i8], align 16
  %3 = alloca [201 x [201 x i8]], align 16
  %4 = alloca i32, align 4
  %5 = alloca [201 x i32], align 16
  %6 = alloca [201 x i32], align 16
  %7 = alloca i32, align 4
  %8 = alloca i32, align 4
  %9 = alloca i32, align 4
  %10 = alloca i32, align 4
  %11 = alloca i32, align 4
  store i32 0, i32* %1, align 4
  %12 = getelementptr inbounds [201 x i8], [201 x i8]* %2, i64 0, i64 0
  %13 = call i32 (i8*, ...) bitcast (i32 (...)* @gets to i32 (i8*, ...)*)(i8* %12)
  %14 = getelementptr inbounds [201 x i8], [201 x i8]* %2, i64 0, i64 0
  %15 = call i64 @strlen(i8* %14) #3
  %16 = trunc i64 %15 to i32
  store i32 %16, i32* %4, align 4
  store i32 0, i32* %7, align 4
  store i32 0, i32* %8, align 4
  store i32 0, i32* %9, align 4
  br label %17

17:                                               ; preds = %74, %0
  %18 = load i32, i32* %9, align 4
  %19 = load i32, i32* %4, align 4
  %20 = icmp slt i32 %18, %19
  br i1 %20, label %21, label %77

21:                                               ; preds = %17
  %22 = load i32, i32* %9, align 4
  %23 = icmp eq i32 %22, 0
  br i1 %23, label %39, label %24

24:                                               ; preds = %21
  %25 = load i32, i32* %9, align 4
  %26 = sub nsw i32 %25, 1
  %27 = sext i32 %26 to i64
  %28 = getelementptr inbounds [201 x i8], [201 x i8]* %2, i64 0, i64 %27
  %29 = load i8, i8* %28, align 1
  %30 = sext i8 %29 to i32
  %31 = icmp eq i32 %30, 32
  br i1 %31, label %32, label %46

32:                                               ; preds = %24
  %33 = load i32, i32* %9, align 4
  %34 = sext i32 %33 to i64
  %35 = getelementptr inbounds [201 x i8], [201 x i8]* %2, i64 0, i64 %34
  %36 = load i8, i8* %35, align 1
  %37 = sext i8 %36 to i32
  %38 = icmp ne i32 %37, 32
  br i1 %38, label %39, label %46

39:                                               ; preds = %32, %21
  %40 = load i32, i32* %9, align 4
  %41 = load i32, i32* %7, align 4
  %42 = sext i32 %41 to i64
  %43 = getelementptr inbounds [201 x i32], [201 x i32]* %5, i64 0, i64 %42
  store i32 %40, i32* %43, align 4
  %44 = load i32, i32* %7, align 4
  %45 = add nsw i32 %44, 1
  store i32 %45, i32* %7, align 4
  br label %46

46:                                               ; preds = %39, %32, %24
  %47 = load i32, i32* %9, align 4
  %48 = load i32, i32* %4, align 4
  %49 = sub nsw i32 %48, 1
  %50 = icmp eq i32 %47, %49
  br i1 %50, label %66, label %51

51:                                               ; preds = %46
  %52 = load i32, i32* %9, align 4
  %53 = sext i32 %52 to i64
  %54 = getelementptr inbounds [201 x i8], [201 x i8]* %2, i64 0, i64 %53
  %55 = load i8, i8* %54, align 1
  %56 = sext i8 %55 to i32
  %57 = icmp ne i32 %56, 32
  br i1 %57, label %58, label %73

58:                                               ; preds = %51
  %59 = load i32, i32* %9, align 4
  %60 = add nsw i32 %59, 1
  %61 = sext i32 %60 to i64
  %62 = getelementptr inbounds [201 x i8], [201 x i8]* %2, i64 0, i64 %61
  %63 = load i8, i8* %62, align 1
  %64 = sext i8 %63 to i32
  %65 = icmp eq i32 %64, 32
  br i1 %65, label %66, label %73

66:                                               ; preds = %58, %46
  %67 = load i32, i32* %9, align 4
  %68 = load i32, i32* %8, align 4
  %69 = sext i32 %68 to i64
  %70 = getelementptr inbounds [201 x i32], [201 x i32]* %6, i64 0, i64 %69
  store i32 %67, i32* %70, align 4
  %71 = load i32, i32* %8, align 4
  %72 = add nsw i32 %71, 1
  store i32 %72, i32* %8, align 4
  br label %73

73:                                               ; preds = %66, %58, %51
  br label %74

74:                                               ; preds = %73
  %75 = load i32, i32* %9, align 4
  %76 = add nsw i32 %75, 1
  store i32 %76, i32* %9, align 4
  br label %17

77:                                               ; preds = %17
  store i32 0, i32* %11, align 4
  store i32 0, i32* %9, align 4
  br label %78

78:                                               ; preds = %115, %77
  %79 = load i32, i32* %11, align 4
  %80 = load i32, i32* %7, align 4
  %81 = icmp slt i32 %79, %80
  br i1 %81, label %82, label %120

82:                                               ; preds = %78
  store i32 0, i32* %10, align 4
  br label %83

83:                                               ; preds = %111, %82
  %84 = load i32, i32* %10, align 4
  %85 = load i32, i32* %9, align 4
  %86 = sext i32 %85 to i64
  %87 = getelementptr inbounds [201 x i32], [201 x i32]* %6, i64 0, i64 %86
  %88 = load i32, i32* %87, align 4
  %89 = load i32, i32* %9, align 4
  %90 = sext i32 %89 to i64
  %91 = getelementptr inbounds [201 x i32], [201 x i32]* %5, i64 0, i64 %90
  %92 = load i32, i32* %91, align 4
  %93 = sub nsw i32 %88, %92
  %94 = icmp sle i32 %84, %93
  br i1 %94, label %95, label %114

95:                                               ; preds = %83
  %96 = load i32, i32* %10, align 4
  %97 = load i32, i32* %9, align 4
  %98 = sext i32 %97 to i64
  %99 = getelementptr inbounds [201 x i32], [201 x i32]* %5, i64 0, i64 %98
  %100 = load i32, i32* %99, align 4
  %101 = add nsw i32 %96, %100
  %102 = sext i32 %101 to i64
  %103 = getelementptr inbounds [201 x i8], [201 x i8]* %2, i64 0, i64 %102
  %104 = load i8, i8* %103, align 1
  %105 = load i32, i32* %11, align 4
  %106 = sext i32 %105 to i64
  %107 = getelementptr inbounds [201 x [201 x i8]], [201 x [201 x i8]]* %3, i64 0, i64 %106
  %108 = load i32, i32* %10, align 4
  %109 = sext i32 %108 to i64
  %110 = getelementptr inbounds [201 x i8], [201 x i8]* %107, i64 0, i64 %109
  store i8 %104, i8* %110, align 1
  br label %111

111:                                              ; preds = %95
  %112 = load i32, i32* %10, align 4
  %113 = add nsw i32 %112, 1
  store i32 %113, i32* %10, align 4
  br label %83

114:                                              ; preds = %83
  br label %115

115:                                              ; preds = %114
  %116 = load i32, i32* %11, align 4
  %117 = add nsw i32 %116, 1
  store i32 %117, i32* %11, align 4
  %118 = load i32, i32* %9, align 4
  %119 = add nsw i32 %118, 1
  store i32 %119, i32* %9, align 4
  br label %78

120:                                              ; preds = %78
  store i32 0, i32* %9, align 4
  br label %121

121:                                              ; preds = %141, %120
  %122 = load i32, i32* %9, align 4
  %123 = load i32, i32* %7, align 4
  %124 = icmp slt i32 %122, %123
  br i1 %124, label %125, label %144

125:                                              ; preds = %121
  %126 = load i32, i32* %9, align 4
  %127 = icmp eq i32 %126, 0
  br i1 %127, label %128, label %134

128:                                              ; preds = %125
  %129 = load i32, i32* %9, align 4
  %130 = sext i32 %129 to i64
  %131 = getelementptr inbounds [201 x [201 x i8]], [201 x [201 x i8]]* %3, i64 0, i64 %130
  %132 = getelementptr inbounds [201 x i8], [201 x i8]* %131, i64 0, i64 0
  %133 = call i32 (i8*, ...) @printf(i8* getelementptr inbounds ([3 x i8], [3 x i8]* @.str, i64 0, i64 0), i8* %132)
  br label %140

134:                                              ; preds = %125
  %135 = load i32, i32* %9, align 4
  %136 = sext i32 %135 to i64
  %137 = getelementptr inbounds [201 x [201 x i8]], [201 x [201 x i8]]* %3, i64 0, i64 %136
  %138 = getelementptr inbounds [201 x i8], [201 x i8]* %137, i64 0, i64 0
  %139 = call i32 (i8*, ...) @printf(i8* getelementptr inbounds ([4 x i8], [4 x i8]* @.str.1, i64 0, i64 0), i8* %138)
  br label %140

140:                                              ; preds = %134, %128
  br label %141

141:                                              ; preds = %140
  %142 = load i32, i32* %9, align 4
  %143 = add nsw i32 %142, 1
  store i32 %143, i32* %9, align 4
  br label %121

144:                                              ; preds = %121
  ret i32 0
}

declare dso_local i32 @gets(...) #1

; Function Attrs: nounwind readonly
declare dso_local i64 @strlen(i8*) #2

declare dso_local i32 @printf(i8*, ...) #1


!llvm.module.flags = !{!0}
!llvm.ident = !{!1}

!0 = !{i32 1, !"wchar_size", i32 4}
!1 = !{!"clang version 10.0.0-4ubuntu1 "}
